target datalayout = "e-m:e-p270:32:32-p271:32:32-p272:64:64-i64:64-i128:128-f80:128-n8:16:32:64-S128"
target triple = "x86_64-pc-linux-gnu"

; Function Attrs: nounwind uwtable
define void @ff_int_to_int16(ptr noundef %0, ptr noundef %1) #0 {
  %3 = alloca ptr, align 8
  %4 = alloca ptr, align 8
  %5 = alloca i32, align 4
  store ptr %0, ptr %3, align 8, !tbaa !4
  store ptr %1, ptr %4, align 8, !tbaa !11
  call void @llvm.lifetime.start.p0(i64 4, ptr %5) #7
  store i32 0, ptr %5, align 4, !tbaa !9
  br label %6

6:                                                ; preds = %16, %2
  %7 = load i32, ptr %5, align 4, !tbaa !9
  %8 = icmp slt i32 %7, 10
  br i1 %8, label %9, label %19

9:                                                ; preds = %6
  %10 = load ptr, ptr %4, align 8, !tbaa !11
  %11 = getelementptr inbounds nuw i32, ptr %10, i32 1
  store ptr %11, ptr %4, align 8, !tbaa !11
  %12 = load i32, ptr %10, align 4, !tbaa !9
  %13 = trunc i32 %12 to i16
  %14 = load ptr, ptr %3, align 8, !tbaa !4
  %15 = getelementptr inbounds nuw i16, ptr %14, i32 1
  store ptr %15, ptr %3, align 8, !tbaa !4
  store i16 %13, ptr %14, align 2, !tbaa !15
  br label %16

16:                                               ; preds = %9
  %17 = load i32, ptr %5, align 4, !tbaa !9
  %18 = add nsw i32 %17, 1
  store i32 %18, ptr %5, align 4, !tbaa !9
  br label %6, !llvm.loop !24

19:                                               ; preds = %6
  call void @llvm.lifetime.end.p0(i64 4, ptr %5) #7
  ret void
}