; Function Attrs: nofree norecurse nosync nounwind memory(argmem: readwrite) uwtable
define void @ff_int_to_int16(ptr noundef writeonly captures(none) %0, ptr noundef readonly captures(none) %1) local_unnamed_addr #6 {
  br label %3

3:                                                ; preds = %2, %3
  %.07 = phi i32 [ 0, %2 ], [ %8, %3 ]
  %.036 = phi ptr [ %1, %2 ], [ %4, %3 ]
  %.045 = phi ptr [ %0, %2 ], [ %7, %3 ]
  %4 = getelementptr inbounds nuw i8, ptr %.036, i64 4
  %5 = load i32, ptr %.036, align 4, !tbaa !8
  %6 = trunc i32 %5 to i16
  %7 = getelementptr inbounds nuw i8, ptr %.045, i64 2
  store i16 %6, ptr %.045, align 2, !tbaa !4
  %8 = add nuw nsw i32 %.07, 1
  %exitcond.not = icmp eq i32 %8, 10
  br i1 %exitcond.not, label %9, label %3, !llvm.loop !17

9:                                                ; preds = %3
  ret void
}